target datalayout = "e-m:e-p270:32:32-p271:32:32-p272:64:64-i64:64-i128:128-f80:128-n8:16:32:64-S128"
target triple = "x86_64-pc-linux-gnu"

@stderr = external global ptr, align 8
@.str.2 = private unnamed_addr constant [33 x i8] c"%s Error in file %s on line %d.\0A\00", align 1
@_ZN3gmxL6IMDstrE = internal constant [5 x i8] c"IMD:\00", align 1
@.str.3 = private unnamed_addr constant [4 x i8] c"%s\0A\00", align 1

; Function Attrs: mustprogress nounwind uwtable
define internal void @_ZN3gmxL15print_IMD_errorEPKciPc(ptr noundef %0, i32 noundef %1, ptr noundef %2) #0 {
  %4 = alloca ptr, align 8
  %5 = alloca i32, align 4
  %6 = alloca ptr, align 8
  store ptr %0, ptr %4, align 8, !tbaa !16
  store i32 %1, ptr %5, align 4, !tbaa !15
  store ptr %2, ptr %6, align 8, !tbaa !16
  %7 = load ptr, ptr @stderr, align 8, !tbaa !23
  %8 = load ptr, ptr %4, align 8, !tbaa !16
  %9 = load i32, ptr %5, align 4, !tbaa !15
  %10 = call i32 (ptr, ptr, ...) @fprintf(ptr noundef %7, ptr noundef @.str.2, ptr noundef @_ZN3gmxL6IMDstrE, ptr noundef %8, i32 noundef %9) #10
  %11 = load ptr, ptr %6, align 8, !tbaa !16
  %12 = icmp ne ptr null, %11
  br i1 %12, label %13, label %17

13:                                               ; preds = %3
  %14 = load ptr, ptr @stderr, align 8, !tbaa !23
  %15 = load ptr, ptr %6, align 8, !tbaa !16
  %16 = call i32 (ptr, ptr, ...) @fprintf(ptr noundef %14, ptr noundef @.str.3, ptr noundef %15) #10
  br label %17

17:                                               ; preds = %13, %3
  ret void
}