; Function Attrs: cold mustprogress nofree nounwind uwtable
define internal fastcc void @_ZN3gmxL15print_IMD_errorEPKciPc(i32 noundef range(i32 157, 438) %0, ptr noundef %1) unnamed_addr #4 {
  %3 = load ptr, ptr @stderr, align 8, !tbaa !13
  %4 = tail call i32 (ptr, ptr, ...) @fprintf(ptr noundef %3, ptr noundef nonnull @.str.2, ptr noundef nonnull @_ZN3gmxL6IMDstrE, ptr noundef nonnull @.str.1, i32 noundef %0) #16
  %.not = icmp eq ptr %1, null
  br i1 %.not, label %8, label %5

5:                                                ; preds = %2
  %6 = load ptr, ptr @stderr, align 8, !tbaa !13
  %7 = tail call i32 (ptr, ptr, ...) @fprintf(ptr noundef %6, ptr noundef nonnull @.str.3, ptr noundef nonnull %1) #16
  br label %8

8:                                                ; preds = %5, %2
  ret void
}